Certificate:
    Data:
        Version: 3 (0x2)
        Serial Number:
            90:9f:07:4a:7c:77:13:61:a4:f7:74:67:26:52:51:cb
        Signature Algorithm: sha256WithRSAEncryption
        Issuer: CN=Vault Easy RSA
        Validity
            Not Before: Jan 10 10:39:22 2023 GMT
            Not After : Apr 14 10:39:22 2025 GMT
        Subject: CN=sentinel1
        Subject Public Key Info:
            Public Key Algorithm: rsaEncryption
                Public-Key: (2048 bit)
                Modulus:
                    00:f0:3b:23:77:8b:74:44:5a:7c:37:ab:e7:a5:ca:
                    1f:f2:e4:eb:c6:af:81:83:46:2f:46:e1:5a:8e:4b:
                    89:b9:da:4c:c1:32:83:e5:1b:ad:a2:cc:a5:fb:09:
                    d7:c9:e9:84:95:bb:45:07:ab:2f:17:cb:7c:7f:c8:
                    f6:70:c1:e8:c9:f4:ec:92:06:4c:0c:df:0e:e2:11:
                    15:63:91:1e:15:d1:fa:d9:cf:41:f2:46:11:6a:a6:
                    be:6f:14:10:ce:c1:56:9d:e8:87:66:3b:bd:df:8a:
                    14:51:f1:ee:15:65:2c:88:bc:96:f5:1a:82:53:8d:
                    c1:40:ee:e6:2e:43:e7:eb:09:64:3f:9c:d1:75:2a:
                    83:8e:2a:88:f2:8e:fb:1b:25:2a:3a:f1:9f:8c:8e:
                    46:0e:32:3b:d2:92:3d:fe:ae:77:c6:c0:21:f8:00:
                    a4:51:f9:18:0e:29:30:c3:84:20:d8:ae:ae:f6:a1:
                    db:fe:fd:d2:4d:fd:12:ca:07:13:f9:9c:56:b1:f1:
                    6a:63:66:fe:22:76:a9:d2:7a:73:af:a7:be:ef:e0:
                    6e:d2:29:8f:a7:fb:67:92:89:b1:b8:af:af:70:09:
                    c0:cb:d7:b6:c0:01:74:9a:57:fb:34:1a:51:17:18:
                    06:af:be:55:44:8f:70:c7:9e:82:bd:c7:b3:1b:76:
                    9d:d5
                Exponent: 65537 (0x10001)
        X509v3 extensions:
            X509v3 Basic Constraints: 
                CA:FALSE
            X509v3 Subject Key Identifier: 
                6E:19:48:D6:19:6C:2E:46:FA:66:39:18:B1:63:88:ED:B2:02:D0:51
            X509v3 Authority Key Identifier: 
                keyid:F4:A6:26:34:E3:D4:9B:0D:1A:71:DA:D6:38:E1:9D:8F:2B:29:A0:E5
                DirName:/CN=Vault Easy RSA
                serial:04:5D:63:73:1C:AF:7B:9C:B9:58:C8:04:2D:61:9F:10:38:E2:81:D1
            X509v3 Extended Key Usage: 
                TLS Web Server Authentication
            X509v3 Key Usage: 
                Digital Signature, Key Encipherment
            X509v3 Subject Alternative Name: 
                DNS:sentinel1
    Signature Algorithm: sha256WithRSAEncryption
    Signature Value:
        5f:d1:ed:19:6c:e3:0c:a0:97:15:87:83:33:16:83:5c:91:0c:
        98:32:91:62:9f:89:53:e3:91:c6:ab:85:bc:fe:b2:37:ad:0d:
        71:ca:84:10:65:2e:68:8a:dc:a8:62:6a:e4:38:16:51:de:08:
        0f:ee:ae:8f:60:9b:2f:fd:e8:fb:05:ee:36:e2:59:61:8b:4b:
        65:ef:3b:4c:0b:31:4f:08:87:ac:cf:17:84:2b:d3:0d:d9:3f:
        3f:0d:dd:34:59:96:98:ea:f9:a2:03:d5:09:6d:a9:d2:3d:64:
        4f:02:7c:ab:2f:00:ea:a0:d3:2f:d4:7c:67:56:84:18:60:21:
        9a:32:f9:60:21:7b:1f:b9:1c:d5:0a:d3:b3:81:a2:a1:7c:4f:
        19:c6:35:93:c1:3e:e8:54:ef:6d:81:bc:86:cf:7a:ce:22:be:
        77:44:9c:7a:3a:59:d1:2d:08:0d:4d:aa:a8:39:42:6e:31:6d:
        32:b2:44:b4:85:38:22:77:80:19:06:ed:2d:70:ed:6b:5e:8c:
        57:9f:09:27:d2:58:89:e3:7b:f2:8d:f2:b3:53:fd:d0:69:03:
        1e:af:71:0a:92:32:28:85:2b:45:ab:b1:ac:25:ae:b2:66:b9:
        bc:c8:71:64:c5:c6:de:09:c1:24:44:87:83:c1:2e:a7:68:ee:
        5f:2e:89:ff
-----BEGIN CERTIFICATE-----
MIIDdDCCAlygAwIBAgIRAJCfB0p8dxNhpPd0ZyZSUcswDQYJKoZIhvcNAQELBQAw
GTEXMBUGA1UEAwwOVmF1bHQgRWFzeSBSU0EwHhcNMjMwMTEwMTAzOTIyWhcNMjUw
NDE0MTAzOTIyWjAUMRIwEAYDVQQDDAlzZW50aW5lbDEwggEiMA0GCSqGSIb3DQEB
AQUAA4IBDwAwggEKAoIBAQDwOyN3i3REWnw3q+elyh/y5OvGr4GDRi9G4VqOS4m5
2kzBMoPlG62izKX7CdfJ6YSVu0UHqy8Xy3x/yPZwwejJ9OySBkwM3w7iERVjkR4V
0frZz0HyRhFqpr5vFBDOwVad6IdmO73fihRR8e4VZSyIvJb1GoJTjcFA7uYuQ+fr
CWQ/nNF1KoOOKojyjvsbJSo68Z+MjkYOMjvSkj3+rnfGwCH4AKRR+RgOKTDDhCDY
rq72odv+/dJN/RLKBxP5nFax8WpjZv4idqnSenOvp77v4G7SKY+n+2eSibG4r69w
CcDL17bAAXSaV/s0GlEXGAavvlVEj3DHnoK9x7Mbdp3VAgMBAAGjgbswgbgwCQYD
VR0TBAIwADAdBgNVHQ4EFgQUbhlI1hlsLkb6ZjkYsWOI7bIC0FEwVAYDVR0jBE0w
S4AU9KYmNOPUmw0acdrWOOGdjyspoOWhHaQbMBkxFzAVBgNVBAMMDlZhdWx0IEVh
c3kgUlNBghQEXWNzHK97nLlYyAQtYZ8QOOKB0TATBgNVHSUEDDAKBggrBgEFBQcD
ATALBgNVHQ8EBAMCBaAwFAYDVR0RBA0wC4IJc2VudGluZWwxMA0GCSqGSIb3DQEB
CwUAA4IBAQBf0e0ZbOMMoJcVh4MzFoNckQyYMpFin4lT45HGq4W8/rI3rQ1xyoQQ
ZS5oityoYmrkOBZR3ggP7q6PYJsv/ej7Be424llhi0tl7ztMCzFPCIeszxeEK9MN
2T8/Dd00WZaY6vmiA9UJbanSPWRPAnyrLwDqoNMv1HxnVoQYYCGaMvlgIXsfuRzV
CtOzgaKhfE8ZxjWTwT7oVO9tgbyGz3rOIr53RJx6OlnRLQgNTaqoOUJuMW0yskS0
hTgid4AZBu0tcO1rXoxXnwkn0liJ43vyjfKzU/3QaQMer3EKkjIohStFq7GsJa6y
Zrm8yHFkxcbeCcEkRIeDwS6naO5fLon/
-----END CERTIFICATE-----
